target datalayout = "e-m:e-p270:32:32-p271:32:32-p272:64:64-i64:64-i128:128-f80:128-n8:16:32:64-S128"
target triple = "x86_64-pc-linux-gnu"

%struct.lstopo_output = type { ptr, i32, i32, i32, ptr, i32, i32, i32, i32, i32, i32, i32, i32, ptr, ptr, i32, i32, i64, i64, i64, i32, [3 x [128 x i8]], i32, i32, ptr, i32, i32, i32, i32, i32, i32, %struct.hwloc_calc_level, i32, i32, i32, i64, [256 x i8], i32, i32, i32, i32, i32, float, [20 x i32], i32, i32, i32, [20 x i32], i32, [20 x i32], i32, [20 x i32], i32, i32, i32, i32, ptr, ptr, i32, [20 x i32], [20 x i32], [20 x i32], ptr, ptr, i64, ptr, i32, i32, i32 }
%struct.hwloc_calc_level = type { i32, i32, %union.hwloc_obj_attr_u, [32 x i8], i32, i32, i32, i32 }
%union.hwloc_obj_attr_u = type { %struct.hwloc_numanode_attr_s, [24 x i8] }
%struct.hwloc_numanode_attr_s = type { i64, i32, ptr }
%struct.draw_methods = type { ptr, ptr, ptr, ptr, ptr, ptr }
%struct.hwloc_obj = type { i32, ptr, i32, ptr, i64, ptr, i32, i32, ptr, ptr, ptr, i32, ptr, ptr, i32, ptr, ptr, ptr, i32, i32, ptr, i32, ptr, i32, ptr, ptr, ptr, ptr, ptr, %struct.hwloc_infos_s, ptr, i64 }
%struct.hwloc_infos_s = type { ptr, i32, i32 }
%struct.lstopo_obj_userdata = type { %struct.hwloc_utils_userdata, i32, i32, %struct.lstopo_style, i32, i32, i32, i32, %struct.lstopo_children_position, %struct.lstopo_children_position, %struct.lstopo_children_position, %struct.lstopo_children_position, i32, i32, i32, [4 x %struct.lstopo_text_line], i32, i32 }
%struct.hwloc_utils_userdata = type { ptr, i64, ptr, ptr }
%struct.lstopo_style = type { ptr, ptr, ptr }
%struct.lstopo_children_position = type { i32, i32, i32, i32, i32, i32, ptr }
%struct.lstopo_text_line = type { [128 x i8], i32, i32 }

@.str.89 = private unnamed_addr constant [10 x i8] c"%ux total\00", align 1

; Function Attrs: nounwind uwtable
define internal i32 @get_textwidth(ptr noundef %0, ptr noundef %1, i32 noundef %2, i32 noundef %3) #0 {
  %5 = alloca ptr, align 8
  %6 = alloca ptr, align 8
  %7 = alloca i32, align 4
  %8 = alloca i32, align 4
  %9 = alloca ptr, align 8
  %10 = alloca i32, align 4
  store ptr %0, ptr %5, align 8, !tbaa !106
  store ptr %1, ptr %6, align 8, !tbaa !33
  store i32 %2, ptr %7, align 4, !tbaa !18
  store i32 %3, ptr %8, align 4, !tbaa !18
  call void @llvm.lifetime.start.p0(i64 8, ptr %9) #12
  %11 = load ptr, ptr %5, align 8, !tbaa !106
  store ptr %11, ptr %9, align 8, !tbaa !4
  call void @llvm.lifetime.start.p0(i64 4, ptr %10) #12
  %12 = load ptr, ptr %9, align 8, !tbaa !4
  %13 = getelementptr inbounds nuw %struct.lstopo_output, ptr %12, i32 0, i32 65
  %14 = load ptr, ptr %13, align 8, !tbaa !35
  %15 = getelementptr inbounds nuw %struct.draw_methods, ptr %14, i32 0, i32 5
  %16 = load ptr, ptr %15, align 8, !tbaa !107
  %17 = load ptr, ptr %5, align 8, !tbaa !106
  %18 = load ptr, ptr %6, align 8, !tbaa !33
  %19 = load i32, ptr %7, align 4, !tbaa !18
  %20 = load i32, ptr %8, align 4, !tbaa !18
  call void %16(ptr noundef %17, ptr noundef %18, i32 noundef %19, i32 noundef %20, ptr noundef %10)
  %21 = load ptr, ptr %9, align 8, !tbaa !4
  %22 = getelementptr inbounds nuw %struct.lstopo_output, ptr %21, i32 0, i32 42
  %23 = load float, ptr %22, align 4, !tbaa !108
  %24 = load i32, ptr %10, align 4, !tbaa !18
  %25 = uitofp i32 %24 to float
  %26 = fmul float %23, %25
  %27 = fptoui float %26 to i32
  store i32 %27, ptr %10, align 4, !tbaa !18
  %28 = load i32, ptr %10, align 4, !tbaa !18
  call void @llvm.lifetime.end.p0(i64 4, ptr %10) #12
  call void @llvm.lifetime.end.p0(i64 8, ptr %9) #12
  ret i32 %28
}

; Function Attrs: nounwind uwtable
define internal void @factorized_draw(ptr noundef %0, ptr noundef %1, i32 noundef %2, i32 noundef %3, i32 noundef %4) #0 {
  %6 = alloca ptr, align 8
  %7 = alloca ptr, align 8
  %8 = alloca i32, align 4
  %9 = alloca i32, align 4
  %10 = alloca i32, align 4
  %11 = alloca ptr, align 8
  %12 = alloca i32, align 4
  %13 = alloca i32, align 4
  %14 = alloca i32, align 4
  %15 = alloca i32, align 4
  %16 = alloca i32, align 4
  %17 = alloca i32, align 4
  %18 = alloca ptr, align 8
  %19 = alloca %struct.lstopo_style, align 8
  %20 = alloca %struct.lstopo_style, align 8
  %21 = alloca i32, align 4
  %22 = alloca i32, align 4
  store ptr %0, ptr %6, align 8, !tbaa !4
  store ptr %1, ptr %7, align 8, !tbaa !42
  store i32 %2, ptr %8, align 4, !tbaa !18
  store i32 %3, ptr %9, align 4, !tbaa !18
  store i32 %4, ptr %10, align 4, !tbaa !18
  call void @llvm.lifetime.start.p0(i64 8, ptr %11) #12
  %23 = load ptr, ptr %7, align 8, !tbaa !42
  %24 = getelementptr inbounds nuw %struct.hwloc_obj, ptr %23, i32 0, i32 30
  %25 = load ptr, ptr %24, align 8, !tbaa !44
  store ptr %25, ptr %11, align 8, !tbaa !50
  call void @llvm.lifetime.start.p0(i64 4, ptr %12) #12
  %26 = load ptr, ptr %6, align 8, !tbaa !4
  %27 = getelementptr inbounds nuw %struct.lstopo_output, ptr %26, i32 0, i32 38
  %28 = load i32, ptr %27, align 4, !tbaa !75
  store i32 %28, ptr %12, align 4, !tbaa !18
  call void @llvm.lifetime.start.p0(i64 4, ptr %13) #12
  %29 = load ptr, ptr %6, align 8, !tbaa !4
  %30 = getelementptr inbounds nuw %struct.lstopo_output, ptr %29, i32 0, i32 39
  %31 = load i32, ptr %30, align 8, !tbaa !76
  store i32 %31, ptr %13, align 4, !tbaa !18
  call void @llvm.lifetime.start.p0(i64 4, ptr %14) #12
  %32 = load ptr, ptr %6, align 8, !tbaa !4
  %33 = getelementptr inbounds nuw %struct.lstopo_output, ptr %32, i32 0, i32 40
  %34 = load i32, ptr %33, align 4, !tbaa !77
  store i32 %34, ptr %14, align 4, !tbaa !18
  call void @llvm.lifetime.start.p0(i64 4, ptr %15) #12
  %35 = load ptr, ptr %7, align 8, !tbaa !42
  %36 = getelementptr inbounds nuw %struct.hwloc_obj, ptr %35, i32 0, i32 6
  %37 = load i32, ptr %36, align 8, !tbaa !137
  %38 = load ptr, ptr %6, align 8, !tbaa !4
  %39 = getelementptr inbounds nuw %struct.lstopo_output, ptr %38, i32 0, i32 1
  %40 = load i32, ptr %39, align 8, !tbaa !157
  %41 = sub i32 %40, 1
  %42 = icmp eq i32 %37, %41
  br i1 %42, label %43, label %45

43:                                               ; preds = %5
  %44 = load i32, ptr %12, align 4, !tbaa !18
  store i32 %44, ptr %15, align 4, !tbaa !18
  br label %46

45:                                               ; preds = %5
  store i32 0, ptr %15, align 4, !tbaa !18
  br label %46

46:                                               ; preds = %45, %43
  %47 = load ptr, ptr %6, align 8, !tbaa !4
  %48 = getelementptr inbounds nuw %struct.lstopo_output, ptr %47, i32 0, i32 66
  %49 = load i32, ptr %48, align 8, !tbaa !78
  %50 = icmp eq i32 %49, 0
  br i1 %50, label %51, label %155

51:                                               ; preds = %46
  call void @llvm.lifetime.start.p0(i64 4, ptr %16) #12
  call void @llvm.lifetime.start.p0(i64 4, ptr %17) #12
  %52 = load i32, ptr %12, align 4, !tbaa !18
  %53 = mul i32 %52, 5
  %54 = load ptr, ptr %11, align 8, !tbaa !50
  %55 = getelementptr inbounds nuw %struct.lstopo_obj_userdata, ptr %54, i32 0, i32 6
  store i32 %53, ptr %55, align 8, !tbaa !97
  %56 = load i32, ptr %12, align 4, !tbaa !18
  %57 = mul i32 %56, 2
  %58 = load i32, ptr %14, align 4, !tbaa !18
  %59 = add i32 %57, %58
  %60 = load i32, ptr %13, align 4, !tbaa !18
  %61 = add i32 %59, %60
  %62 = load i32, ptr %12, align 4, !tbaa !18
  %63 = add i32 %61, %62
  %64 = load ptr, ptr %11, align 8, !tbaa !50
  %65 = getelementptr inbounds nuw %struct.lstopo_obj_userdata, ptr %64, i32 0, i32 7
  store i32 %63, ptr %65, align 4, !tbaa !99
  %66 = load ptr, ptr %11, align 8, !tbaa !50
  %67 = getelementptr inbounds nuw %struct.lstopo_obj_userdata, ptr %66, i32 0, i32 15
  %68 = getelementptr inbounds [4 x %struct.lstopo_text_line], ptr %67, i64 0, i64 0
  %69 = getelementptr inbounds nuw %struct.lstopo_text_line, ptr %68, i32 0, i32 0
  %70 = getelementptr inbounds [128 x i8], ptr %69, i64 0, i64 0
  %71 = load ptr, ptr %7, align 8, !tbaa !42
  %72 = getelementptr inbounds nuw %struct.hwloc_obj, ptr %71, i32 0, i32 10
  %73 = load ptr, ptr %72, align 8, !tbaa !142
  %74 = getelementptr inbounds nuw %struct.hwloc_obj, ptr %73, i32 0, i32 14
  %75 = load i32, ptr %74, align 8, !tbaa !147
  %76 = call i32 (ptr, ptr, ...) @sprintf(ptr noundef %70, ptr noundef @.str.89, i32 noundef %75) #12
  %77 = load ptr, ptr %11, align 8, !tbaa !50
  %78 = getelementptr inbounds nuw %struct.lstopo_obj_userdata, ptr %77, i32 0, i32 15
  %79 = getelementptr inbounds [4 x %struct.lstopo_text_line], ptr %78, i64 0, i64 0
  %80 = getelementptr inbounds nuw %struct.lstopo_text_line, ptr %79, i32 0, i32 0
  %81 = getelementptr inbounds [128 x i8], ptr %80, i64 0, i64 0
  %82 = call i64 @strlen(ptr noundef %81) #11
  %83 = trunc i64 %82 to i32
  store i32 %83, ptr %16, align 4, !tbaa !18
  %84 = load ptr, ptr %6, align 8, !tbaa !4
  %85 = load ptr, ptr %11, align 8, !tbaa !50
  %86 = getelementptr inbounds nuw %struct.lstopo_obj_userdata, ptr %85, i32 0, i32 15
  %87 = getelementptr inbounds [4 x %struct.lstopo_text_line], ptr %86, i64 0, i64 0
  %88 = getelementptr inbounds nuw %struct.lstopo_text_line, ptr %87, i32 0, i32 0
  %89 = getelementptr inbounds [128 x i8], ptr %88, i64 0, i64 0
  %90 = load i32, ptr %16, align 4, !tbaa !18
  %91 = load i32, ptr %13, align 4, !tbaa !18
  %92 = call i32 @get_textwidth(ptr noundef %84, ptr noundef %89, i32 noundef %90, i32 noundef %91)
  store i32 %92, ptr %17, align 4, !tbaa !18
  %93 = load i32, ptr %17, align 4, !tbaa !18
  %94 = load ptr, ptr %11, align 8, !tbaa !50
  %95 = getelementptr inbounds nuw %struct.lstopo_obj_userdata, ptr %94, i32 0, i32 15
  %96 = getelementptr inbounds [4 x %struct.lstopo_text_line], ptr %95, i64 0, i64 0
  %97 = getelementptr inbounds nuw %struct.lstopo_text_line, ptr %96, i32 0, i32 1
  store i32 %93, ptr %97, align 4, !tbaa !112
  %98 = load i32, ptr %17, align 4, !tbaa !18
  %99 = load ptr, ptr %11, align 8, !tbaa !50
  %100 = getelementptr inbounds nuw %struct.lstopo_obj_userdata, ptr %99, i32 0, i32 6
  %101 = load i32, ptr %100, align 8, !tbaa !97
  %102 = icmp ugt i32 %98, %101
  br i1 %102, label %103, label %107

103:                                              ; preds = %51
  %104 = load i32, ptr %17, align 4, !tbaa !18
  %105 = load ptr, ptr %11, align 8, !tbaa !50
  %106 = getelementptr inbounds nuw %struct.lstopo_obj_userdata, ptr %105, i32 0, i32 6
  store i32 %104, ptr %106, align 8, !tbaa !97
  br label %107

107:                                              ; preds = %103, %51
  %108 = load ptr, ptr %11, align 8, !tbaa !50
  %109 = getelementptr inbounds nuw %struct.lstopo_obj_userdata, ptr %108, i32 0, i32 15
  %110 = getelementptr inbounds [4 x %struct.lstopo_text_line], ptr %109, i64 0, i64 0
  %111 = getelementptr inbounds nuw %struct.lstopo_text_line, ptr %110, i32 0, i32 2
  store i32 0, ptr %111, align 4, !tbaa !114
  %112 = load ptr, ptr %11, align 8, !tbaa !50
  %113 = getelementptr inbounds nuw %struct.lstopo_obj_userdata, ptr %112, i32 0, i32 14
  store i32 0, ptr %113, align 8, !tbaa !158
  %114 = load ptr, ptr %6, align 8, !tbaa !4
  %115 = getelementptr inbounds nuw %struct.lstopo_output, ptr %114, i32 0, i32 64
  %116 = load i64, ptr %115, align 8, !tbaa !151
  %117 = and i64 %116, 2
  %118 = icmp ne i64 %117, 0
  br i1 %118, label %146, label %119

119:                                              ; preds = %107
  %120 = load ptr, ptr %11, align 8, !tbaa !50
  %121 = getelementptr inbounds nuw %struct.lstopo_obj_userdata, ptr %120, i32 0, i32 6
  %122 = load i32, ptr %121, align 8, !tbaa !97
  %123 = load i32, ptr %17, align 4, !tbaa !18
  %124 = icmp ugt i32 %122, %123
  br i1 %124, label %125, label %136

125:                                              ; preds = %119
  %126 = load ptr, ptr %11, align 8, !tbaa !50
  %127 = getelementptr inbounds nuw %struct.lstopo_obj_userdata, ptr %126, i32 0, i32 6
  %128 = load i32, ptr %127, align 8, !tbaa !97
  %129 = load i32, ptr %17, align 4, !tbaa !18
  %130 = sub i32 %128, %129
  %131 = udiv i32 %130, 2
  %132 = load ptr, ptr %11, align 8, !tbaa !50
  %133 = getelementptr inbounds nuw %struct.lstopo_obj_userdata, ptr %132, i32 0, i32 15
  %134 = getelementptr inbounds [4 x %struct.lstopo_text_line], ptr %133, i64 0, i64 0
  %135 = getelementptr inbounds nuw %struct.lstopo_text_line, ptr %134, i32 0, i32 2
  store i32 %131, ptr %135, align 4, !tbaa !114
  br label %145

136:                                              ; preds = %119
  %137 = load i32, ptr %17, align 4, !tbaa !18
  %138 = load ptr, ptr %11, align 8, !tbaa !50
  %139 = getelementptr inbounds nuw %struct.lstopo_obj_userdata, ptr %138, i32 0, i32 6
  %140 = load i32, ptr %139, align 8, !tbaa !97
  %141 = sub i32 %137, %140
  %142 = udiv i32 %141, 2
  %143 = load ptr, ptr %11, align 8, !tbaa !50
  %144 = getelementptr inbounds nuw %struct.lstopo_obj_userdata, ptr %143, i32 0, i32 14
  store i32 %142, ptr %144, align 8, !tbaa !158
  br label %145

145:                                              ; preds = %136, %125
  br label %146

146:                                              ; preds = %145, %107
  %147 = load ptr, ptr %11, align 8, !tbaa !50
  %148 = getelementptr inbounds nuw %struct.lstopo_obj_userdata, ptr %147, i32 0, i32 16
  store i32 1, ptr %148, align 4, !tbaa !111
  %149 = load i32, ptr %15, align 4, !tbaa !18
  %150 = mul i32 2, %149
  %151 = load ptr, ptr %11, align 8, !tbaa !50
  %152 = getelementptr inbounds nuw %struct.lstopo_obj_userdata, ptr %151, i32 0, i32 6
  %153 = load i32, ptr %152, align 8, !tbaa !97
  %154 = add i32 %153, %150
  store i32 %154, ptr %152, align 8, !tbaa !97
  call void @llvm.lifetime.end.p0(i64 4, ptr %17) #12
  call void @llvm.lifetime.end.p0(i64 4, ptr %16) #12
  br label %258

155:                                              ; preds = %46
  call void @llvm.lifetime.start.p0(i64 8, ptr %18) #12
  %156 = load ptr, ptr %6, align 8, !tbaa !4
  %157 = getelementptr inbounds nuw %struct.lstopo_output, ptr %156, i32 0, i32 65
  %158 = load ptr, ptr %157, align 8, !tbaa !35
  store ptr %158, ptr %18, align 8, !tbaa !74
  call void @llvm.lifetime.start.p0(i64 24, ptr %19) #12
  call void @llvm.lifetime.start.p0(i64 24, ptr %20) #12
  call void @llvm.lifetime.start.p0(i64 4, ptr %21) #12
  %159 = load ptr, ptr %11, align 8, !tbaa !50
  %160 = getelementptr inbounds nuw %struct.lstopo_obj_userdata, ptr %159, i32 0, i32 14
  %161 = load i32, ptr %160, align 8, !tbaa !158
  store i32 %161, ptr %21, align 4, !tbaa !18
  call void @llvm.lifetime.start.p0(i64 4, ptr %22) #12
  %162 = load ptr, ptr %11, align 8, !tbaa !50
  %163 = getelementptr inbounds nuw %struct.lstopo_obj_userdata, ptr %162, i32 0, i32 15
  %164 = getelementptr inbounds [4 x %struct.lstopo_text_line], ptr %163, i64 0, i64 0
  %165 = getelementptr inbounds nuw %struct.lstopo_text_line, ptr %164, i32 0, i32 2
  %166 = load i32, ptr %165, align 4, !tbaa !114
  store i32 %166, ptr %22, align 4, !tbaa !18
  %167 = load ptr, ptr %6, align 8, !tbaa !4
  %168 = load ptr, ptr %7, align 8, !tbaa !42
  call void @lstopo_set_object_color(ptr noundef %167, ptr noundef %168, ptr noundef %19)
  %169 = load ptr, ptr %6, align 8, !tbaa !4
  %170 = load ptr, ptr %7, align 8, !tbaa !42
  %171 = getelementptr inbounds nuw %struct.hwloc_obj, ptr %170, i32 0, i32 10
  %172 = load ptr, ptr %171, align 8, !tbaa !142
  call void @lstopo_set_object_color(ptr noundef %169, ptr noundef %172, ptr noundef %20)
  %173 = load ptr, ptr %18, align 8, !tbaa !74
  %174 = getelementptr inbounds nuw %struct.draw_methods, ptr %173, i32 0, i32 2
  %175 = load ptr, ptr %174, align 8, !tbaa !101
  %176 = load ptr, ptr %6, align 8, !tbaa !4
  %177 = getelementptr inbounds nuw %struct.lstopo_style, ptr %19, i32 0, i32 0
  %178 = load ptr, ptr %177, align 8, !tbaa !60
  %179 = load i32, ptr %8, align 4, !tbaa !18
  %180 = load i32, ptr %9, align 4, !tbaa !18
  %181 = load i32, ptr %15, align 4, !tbaa !18
  %182 = add i32 %180, %181
  %183 = load i32, ptr %21, align 4, !tbaa !18
  %184 = add i32 %182, %183
  %185 = load i32, ptr %12, align 4, !tbaa !18
  %186 = load i32, ptr %10, align 4, !tbaa !18
  %187 = load i32, ptr %12, align 4, !tbaa !18
  %188 = add i32 %186, %187
  %189 = load i32, ptr %12, align 4, !tbaa !18
  %190 = load ptr, ptr %7, align 8, !tbaa !42
  call void %175(ptr noundef %176, ptr noundef %178, i32 noundef %179, i32 noundef %184, i32 noundef %185, i32 noundef %188, i32 noundef %189, ptr noundef %190, i32 noundef 0)
  %191 = load ptr, ptr %18, align 8, !tbaa !74
  %192 = getelementptr inbounds nuw %struct.draw_methods, ptr %191, i32 0, i32 2
  %193 = load ptr, ptr %192, align 8, !tbaa !101
  %194 = load ptr, ptr %6, align 8, !tbaa !4
  %195 = getelementptr inbounds nuw %struct.lstopo_style, ptr %19, i32 0, i32 0
  %196 = load ptr, ptr %195, align 8, !tbaa !60
  %197 = load i32, ptr %8, align 4, !tbaa !18
  %198 = load i32, ptr %9, align 4, !tbaa !18
  %199 = load i32, ptr %15, align 4, !tbaa !18
  %200 = add i32 %198, %199
  %201 = load i32, ptr %21, align 4, !tbaa !18
  %202 = add i32 %200, %201
  %203 = load i32, ptr %12, align 4, !tbaa !18
  %204 = mul i32 2, %203
  %205 = add i32 %202, %204
  %206 = load i32, ptr %12, align 4, !tbaa !18
  %207 = load i32, ptr %10, align 4, !tbaa !18
  %208 = load i32, ptr %12, align 4, !tbaa !18
  %209 = add i32 %207, %208
  %210 = load i32, ptr %12, align 4, !tbaa !18
  %211 = load ptr, ptr %7, align 8, !tbaa !42
  call void %193(ptr noundef %194, ptr noundef %196, i32 noundef %197, i32 noundef %205, i32 noundef %206, i32 noundef %209, i32 noundef %210, ptr noundef %211, i32 noundef 0)
  %212 = load ptr, ptr %18, align 8, !tbaa !74
  %213 = getelementptr inbounds nuw %struct.draw_methods, ptr %212, i32 0, i32 2
  %214 = load ptr, ptr %213, align 8, !tbaa !101
  %215 = load ptr, ptr %6, align 8, !tbaa !4
  %216 = getelementptr inbounds nuw %struct.lstopo_style, ptr %19, i32 0, i32 0
  %217 = load ptr, ptr %216, align 8, !tbaa !60
  %218 = load i32, ptr %8, align 4, !tbaa !18
  %219 = load i32, ptr %9, align 4, !tbaa !18
  %220 = load i32, ptr %15, align 4, !tbaa !18
  %221 = add i32 %219, %220
  %222 = load i32, ptr %21, align 4, !tbaa !18
  %223 = add i32 %221, %222
  %224 = load i32, ptr %12, align 4, !tbaa !18
  %225 = mul i32 4, %224
  %226 = add i32 %223, %225
  %227 = load i32, ptr %12, align 4, !tbaa !18
  %228 = load i32, ptr %10, align 4, !tbaa !18
  %229 = load i32, ptr %12, align 4, !tbaa !18
  %230 = add i32 %228, %229
  %231 = load i32, ptr %12, align 4, !tbaa !18
  %232 = load ptr, ptr %7, align 8, !tbaa !42
  call void %214(ptr noundef %215, ptr noundef %217, i32 noundef %218, i32 noundef %226, i32 noundef %227, i32 noundef %230, i32 noundef %231, ptr noundef %232, i32 noundef 0)
  %233 = load ptr, ptr %18, align 8, !tbaa !74
  %234 = getelementptr inbounds nuw %struct.draw_methods, ptr %233, i32 0, i32 4
  %235 = load ptr, ptr %234, align 8, !tbaa !102
  %236 = load ptr, ptr %6, align 8, !tbaa !4
  %237 = getelementptr inbounds nuw %struct.lstopo_style, ptr %20, i32 0, i32 1
  %238 = load ptr, ptr %237, align 8, !tbaa !61
  %239 = load i32, ptr %13, align 4, !tbaa !18
  %240 = load i32, ptr %8, align 4, !tbaa !18
  %241 = load i32, ptr %9, align 4, !tbaa !18
  %242 = load i32, ptr %15, align 4, !tbaa !18
  %243 = add i32 %241, %242
  %244 = load i32, ptr %22, align 4, !tbaa !18
  %245 = add i32 %243, %244
  %246 = load i32, ptr %10, align 4, !tbaa !18
  %247 = load i32, ptr %12, align 4, !tbaa !18
  %248 = mul i32 2, %247
  %249 = add i32 %246, %248
  %250 = load i32, ptr %14, align 4, !tbaa !18
  %251 = add i32 %249, %250
  %252 = load ptr, ptr %11, align 8, !tbaa !50
  %253 = getelementptr inbounds nuw %struct.lstopo_obj_userdata, ptr %252, i32 0, i32 15
  %254 = getelementptr inbounds [4 x %struct.lstopo_text_line], ptr %253, i64 0, i64 0
  %255 = getelementptr inbounds nuw %struct.lstopo_text_line, ptr %254, i32 0, i32 0
  %256 = getelementptr inbounds [128 x i8], ptr %255, i64 0, i64 0
  %257 = load ptr, ptr %7, align 8, !tbaa !42
  call void %235(ptr noundef %236, ptr noundef %238, i32 noundef %239, i32 noundef %240, i32 noundef %245, i32 noundef %251, ptr noundef %256, ptr noundef %257, i32 noundef 0)
  call void @llvm.lifetime.end.p0(i64 4, ptr %22) #12
  call void @llvm.lifetime.end.p0(i64 4, ptr %21) #12
  call void @llvm.lifetime.end.p0(i64 24, ptr %20) #12
  call void @llvm.lifetime.end.p0(i64 24, ptr %19) #12
  call void @llvm.lifetime.end.p0(i64 8, ptr %18) #12
  br label %258

258:                                              ; preds = %155, %146
  call void @llvm.lifetime.end.p0(i64 4, ptr %15) #12
  call void @llvm.lifetime.end.p0(i64 4, ptr %14) #12
  call void @llvm.lifetime.end.p0(i64 4, ptr %13) #12
  call void @llvm.lifetime.end.p0(i64 4, ptr %12) #12
  call void @llvm.lifetime.end.p0(i64 8, ptr %11) #12
  ret void
}