; Function Attrs: nounwind uwtable
define internal fastcc void @factorized_draw(ptr noundef %0, ptr noundef %1, i32 noundef %2, i32 noundef %3, i32 noundef %4) unnamed_addr #8 {
  %6 = alloca i32, align 4
  %7 = alloca %struct.lstopo_style, align 8
  %8 = alloca %struct.lstopo_style, align 8
  %9 = getelementptr inbounds nuw i8, ptr %1, i64 232
  %10 = load ptr, ptr %9, align 8, !tbaa !37
  %11 = getelementptr inbounds nuw i8, ptr %0, i64 932
  %12 = load i32, ptr %11, align 4, !tbaa !67
  %13 = getelementptr inbounds nuw i8, ptr %0, i64 936
  %14 = load i32, ptr %13, align 8, !tbaa !68
  %15 = getelementptr inbounds nuw i8, ptr %0, i64 940
  %16 = load i32, ptr %15, align 4, !tbaa !69
  %17 = getelementptr inbounds nuw i8, ptr %1, i64 48
  %18 = load i32, ptr %17, align 8, !tbaa !86
  %19 = getelementptr inbounds nuw i8, ptr %0, i64 8
  %20 = load i32, ptr %19, align 8, !tbaa !134
  %21 = add i32 %20, -1
  %22 = icmp eq i32 %18, %21
  %. = select i1 %22, i32 %12, i32 0
  %23 = getelementptr inbounds nuw i8, ptr %0, i64 1608
  %24 = load i32, ptr %23, align 8, !tbaa !70
  %25 = icmp eq i32 %24, 0
  br i1 %25, label %26, label %70

26:                                               ; preds = %5
  %27 = mul i32 %12, 5
  %28 = getelementptr inbounds nuw i8, ptr %10, i64 72
  store i32 %27, ptr %28, align 8, !tbaa !98
  %29 = mul i32 %12, 3
  %30 = add i32 %29, %14
  %31 = add i32 %30, %16
  %32 = getelementptr inbounds nuw i8, ptr %10, i64 76
  store i32 %31, ptr %32, align 4, !tbaa !100
  %33 = getelementptr inbounds nuw i8, ptr %10, i64 220
  %34 = getelementptr inbounds nuw i8, ptr %1, i64 72
  %35 = load ptr, ptr %34, align 8, !tbaa !120
  %36 = getelementptr inbounds nuw i8, ptr %35, i64 104
  %37 = load i32, ptr %36, align 8, !tbaa !124
  %38 = tail call i32 (ptr, ptr, ...) @sprintf(ptr noundef nonnull dereferenceable(1) %33, ptr noundef nonnull dereferenceable(1) @.str.89, i32 noundef %37) #26
  %39 = tail call i64 @strlen(ptr noundef nonnull dereferenceable(1) %33) #24
  %40 = trunc i64 %39 to i32
  call void @llvm.lifetime.start.p0(i64 4, ptr nonnull %6) #26
  %41 = getelementptr inbounds nuw i8, ptr %0, i64 1600
  %42 = load ptr, ptr %41, align 8, !tbaa !27
  %43 = getelementptr inbounds nuw i8, ptr %42, i64 40
  %44 = load ptr, ptr %43, align 8, !tbaa !72
  call void %44(ptr noundef nonnull %0, ptr noundef nonnull %33, i32 noundef %40, i32 noundef %14, ptr noundef nonnull %6) #26
  %45 = getelementptr inbounds nuw i8, ptr %0, i64 948
  %46 = load float, ptr %45, align 4, !tbaa !73
  %47 = load i32, ptr %6, align 4, !tbaa !4
  %48 = uitofp i32 %47 to float
  %49 = fmul float %46, %48
  %50 = fptoui float %49 to i32
  call void @llvm.lifetime.end.p0(i64 4, ptr nonnull %6) #26
  %51 = getelementptr inbounds nuw i8, ptr %10, i64 348
  store i32 %50, ptr %51, align 4, !tbaa !91
  %52 = load i32, ptr %28, align 8, !tbaa !98
  %spec.select = call i32 @llvm.umax.i32(i32 %52, i32 %50)
  %53 = getelementptr inbounds nuw i8, ptr %10, i64 352
  store i32 0, ptr %53, align 4, !tbaa !93
  %54 = getelementptr inbounds nuw i8, ptr %10, i64 216
  store i32 0, ptr %54, align 8, !tbaa !135
  %55 = getelementptr inbounds nuw i8, ptr %0, i64 1592
  %56 = load i64, ptr %55, align 8, !tbaa !129
  %57 = and i64 %56, 2
  %.not = icmp eq i64 %57, 0
  br i1 %.not, label %58, label %66

58:                                               ; preds = %26
  %59 = icmp ugt i32 %52, %50
  br i1 %59, label %60, label %63

60:                                               ; preds = %58
  %61 = sub nuw i32 %spec.select, %50
  %62 = lshr i32 %61, 1
  store i32 %62, ptr %53, align 4, !tbaa !93
  br label %66

63:                                               ; preds = %58
  %64 = sub nuw i32 %50, %spec.select
  %65 = lshr i32 %64, 1
  store i32 %65, ptr %54, align 8, !tbaa !135
  br label %66

66:                                               ; preds = %60, %63, %26
  %67 = getelementptr inbounds nuw i8, ptr %10, i64 764
  store i32 1, ptr %67, align 4, !tbaa !90
  %68 = shl i32 %., 1
  %69 = add i32 %spec.select, %68
  store i32 %69, ptr %28, align 8, !tbaa !98
  br label %99

70:                                               ; preds = %5
  %71 = getelementptr inbounds nuw i8, ptr %0, i64 1600
  %72 = load ptr, ptr %71, align 8, !tbaa !27
  call void @llvm.lifetime.start.p0(i64 24, ptr nonnull %7) #26
  call void @llvm.lifetime.start.p0(i64 24, ptr nonnull %8) #26
  %73 = getelementptr inbounds nuw i8, ptr %10, i64 216
  %74 = load i32, ptr %73, align 8, !tbaa !135
  %75 = getelementptr inbounds nuw i8, ptr %10, i64 220
  %76 = getelementptr inbounds nuw i8, ptr %10, i64 352
  %77 = load i32, ptr %76, align 4, !tbaa !93
  call fastcc void @lstopo_set_object_color(ptr noundef nonnull %0, ptr noundef nonnull %1, ptr noundef %7)
  %78 = getelementptr inbounds nuw i8, ptr %1, i64 72
  %79 = load ptr, ptr %78, align 8, !tbaa !120
  call fastcc void @lstopo_set_object_color(ptr noundef nonnull %0, ptr noundef %79, ptr noundef %8)
  %80 = getelementptr inbounds nuw i8, ptr %72, i64 16
  %81 = load ptr, ptr %80, align 8, !tbaa !102
  %82 = load ptr, ptr %7, align 8, !tbaa !59
  %83 = add i32 %., %3
  %84 = add i32 %74, %83
  %85 = add i32 %12, %4
  tail call void %81(ptr noundef nonnull %0, ptr noundef %82, i32 noundef %2, i32 noundef %84, i32 noundef %12, i32 noundef %85, i32 noundef %12, ptr noundef nonnull %1, i32 noundef 0) #26
  %86 = load ptr, ptr %80, align 8, !tbaa !102
  %87 = shl i32 %12, 1
  %88 = add i32 %84, %87
  tail call void %86(ptr noundef nonnull %0, ptr noundef %82, i32 noundef %2, i32 noundef %88, i32 noundef %12, i32 noundef %85, i32 noundef %12, ptr noundef nonnull %1, i32 noundef 0) #26
  %89 = load ptr, ptr %80, align 8, !tbaa !102
  %90 = shl i32 %12, 2
  %91 = add i32 %84, %90
  tail call void %89(ptr noundef nonnull %0, ptr noundef %82, i32 noundef %2, i32 noundef %91, i32 noundef %12, i32 noundef %85, i32 noundef %12, ptr noundef nonnull %1, i32 noundef 0) #26
  %92 = getelementptr inbounds nuw i8, ptr %72, i64 32
  %93 = load ptr, ptr %92, align 8, !tbaa !103
  %94 = getelementptr inbounds nuw i8, ptr %8, i64 8
  %95 = load ptr, ptr %94, align 8, !tbaa !60
  %96 = add i32 %77, %83
  %97 = add i32 %87, %4
  %98 = add i32 %97, %16
  tail call void %93(ptr noundef nonnull %0, ptr noundef %95, i32 noundef %14, i32 noundef %2, i32 noundef %96, i32 noundef %98, ptr noundef nonnull %75, ptr noundef nonnull %1, i32 noundef 0) #26
  call void @llvm.lifetime.end.p0(i64 24, ptr nonnull %8) #26
  call void @llvm.lifetime.end.p0(i64 24, ptr nonnull %7) #26
  br label %99

99:                                               ; preds = %70, %66
  ret void
}